; Function Attrs: mustprogress sspstrong uwtable
define void @_ZN4FLAC8Metadata13VorbisComment5Entry9constructEPKcS4_j(ptr nocapture noundef nonnull align 8 dereferenceable(60) %this, ptr noundef %field_name, ptr noundef %field_value, i32 noundef %field_value_length) local_unnamed_addr #0 align 2 {
entry:
  %call = tail call noundef zeroext i1 @_ZN4FLAC8Metadata13VorbisComment5Entry14set_field_nameEPKc(ptr noundef nonnull align 8 dereferenceable(60) %this, ptr noundef %field_name)
  br i1 %call, label %land.lhs.true, label %if.end

land.lhs.true:                                    ; preds = %entry
  %call2 = tail call noundef zeroext i1 @_ZN4FLAC8Metadata13VorbisComment5Entry15set_field_valueEPKcj(ptr noundef nonnull align 8 dereferenceable(60) %this, ptr noundef %field_value, i32 noundef %field_value_length)
  br i1 %call2, label %if.then, label %if.end

if.then:                                          ; preds = %land.lhs.true
  %entry2.i.i = getelementptr inbounds i8, ptr %this, i64 24
  %0 = load ptr, ptr %entry2.i.i, align 8
  %cmp.not.i.i = icmp eq ptr %0, null
  br i1 %cmp.not.i.i, label %_ZN4FLAC8Metadata13VorbisComment5Entry11clear_entryEv.exit.i, label %if.then.i.i

if.then.i.i:                                      ; preds = %if.then
  %entry_.i.i = getelementptr inbounds i8, ptr %this, i64 16
  tail call void @free(ptr noundef nonnull %0) #20
  store i32 0, ptr %entry_.i.i, align 8
  br label %_ZN4FLAC8Metadata13VorbisComment5Entry11clear_entryEv.exit.i

_ZN4FLAC8Metadata13VorbisComment5Entry11clear_entryEv.exit.i: ; preds = %if.then.i.i, %if.then
  %field_name_length_.i = getelementptr inbounds i8, ptr %this, i64 40
  %1 = load i32, ptr %field_name_length_.i, align 8
  %conv.i = zext i32 %1 to i64
  %field_value_length_.i = getelementptr inbounds i8, ptr %this, i64 56
  %2 = load i32, ptr %field_value_length_.i, align 8
  %conv2.i = zext i32 %2 to i64
  %add1.i.i = add nuw nsw i64 %conv.i, 2
  %add5.i.i = add nuw nsw i64 %add1.i.i, %conv2.i
  %call.i.i.i = tail call noalias noundef ptr @malloc(i64 noundef %add5.i.i) #23
  %entry_.i = getelementptr inbounds i8, ptr %this, i64 16
  store ptr %call.i.i.i, ptr %entry2.i.i, align 8
  %cmp.i = icmp eq ptr %call.i.i.i, null
  br i1 %cmp.i, label %_ZN4FLAC8Metadata13VorbisComment5Entry13compose_fieldEv.exit, label %if.else.i

if.else.i:                                        ; preds = %_ZN4FLAC8Metadata13VorbisComment5Entry11clear_entryEv.exit.i
  %field_name_.i = getelementptr inbounds i8, ptr %this, i64 32
  %3 = load ptr, ptr %field_name_.i, align 8
  tail call void @llvm.memcpy.p0.p0.i64(ptr nonnull align 1 %call.i.i.i, ptr align 1 %3, i64 %conv.i, i1 false)
  %4 = load i32, ptr %entry_.i, align 8
  %add.i = add i32 %4, %1
  %idx.ext.i = zext i32 %add.i to i64
  %add.ptr.i = getelementptr inbounds i8, ptr %call.i.i.i, i64 %idx.ext.i
  store i8 61, ptr %add.ptr.i, align 1
  %add16.i = add i32 %add.i, 1
  store i32 %add16.i, ptr %entry_.i, align 8
  %cmp18.not.i = icmp eq i32 %2, 0
  br i1 %cmp18.not.i, label %if.end.i, label %if.then19.i

if.then19.i:                                      ; preds = %if.else.i
  %idx.ext24.i = zext i32 %add16.i to i64
  %add.ptr25.i = getelementptr inbounds i8, ptr %call.i.i.i, i64 %idx.ext24.i
  %field_value_.i = getelementptr inbounds i8, ptr %this, i64 48
  %5 = load ptr, ptr %field_value_.i, align 8
  tail call void @llvm.memcpy.p0.p0.i64(ptr nonnull align 1 %add.ptr25.i, ptr align 1 %5, i64 %conv2.i, i1 false)
  br label %if.end.i

if.end.i:                                         ; preds = %if.then19.i, %if.else.i
  %add31.i = add i32 %add16.i, %2
  store i32 %add31.i, ptr %entry_.i, align 8
  %idxprom.i = zext i32 %add31.i to i64
  %arrayidx.i = getelementptr inbounds i8, ptr %call.i.i.i, i64 %idxprom.i
  store i8 0, ptr %arrayidx.i, align 1
  br label %_ZN4FLAC8Metadata13VorbisComment5Entry13compose_fieldEv.exit

_ZN4FLAC8Metadata13VorbisComment5Entry13compose_fieldEv.exit: ; preds = %_ZN4FLAC8Metadata13VorbisComment5Entry11clear_entryEv.exit.i, %if.end.i
  %.sink.i = phi i8 [ 1, %if.end.i ], [ 0, %_ZN4FLAC8Metadata13VorbisComment5Entry11clear_entryEv.exit.i ]
  %is_valid_36.i = getelementptr inbounds i8, ptr %this, i64 8
  store i8 %.sink.i, ptr %is_valid_36.i, align 8
  br label %if.end

if.end:                                           ; preds = %_ZN4FLAC8Metadata13VorbisComment5Entry13compose_fieldEv.exit, %land.lhs.true, %entry
  ret void
}